target datalayout = "e-m:e-p270:32:32-p271:32:32-p272:64:64-i64:64-i128:128-f80:128-n8:16:32:64-S128"
target triple = "x86_64-pc-linux-gnu"

%struct.SDL_AudioStream = type { ptr, i32, ptr, ptr, ptr, ptr, %struct.SDL_AudioSpec, %struct.SDL_AudioSpec, ptr, ptr, float, float, ptr, %struct.SDL_AudioSpec, ptr, [8 x i32], i64, ptr, i64, i8, ptr, ptr, ptr, ptr, ptr }
%struct.SDL_AudioSpec = type { i32, i32, i32 }

@.str = private unnamed_addr constant [26 x i8] c"Parameter '%s' is invalid\00", align 1
@.str.1 = private unnamed_addr constant [7 x i8] c"stream\00", align 1
@.str.14 = private unnamed_addr constant [5 x i8] c"gain\00", align 1

; Function Attrs: nounwind uwtable
define hidden zeroext i1 @SDL_SetAudioStreamGain_REAL(ptr noundef %0, float noundef %1) #0 {
  %3 = alloca i1, align 1
  %4 = alloca ptr, align 8
  %5 = alloca float, align 4
  store ptr %0, ptr %4, align 8
  store float %1, ptr %5, align 4
  %6 = load ptr, ptr %4, align 8
  %7 = icmp ne ptr %6, null
  br i1 %7, label %10, label %8

8:                                                ; preds = %2
  %9 = call zeroext i1 (ptr, ...) @SDL_SetError_REAL(ptr noundef @.str, ptr noundef @.str.1)
  store i1 %9, ptr %3, align 1
  br label %26

10:                                               ; preds = %2
  %11 = load float, ptr %5, align 4
  %12 = fcmp olt float %11, 0.000000e+00
  br i1 %12, label %13, label %15

13:                                               ; preds = %10
  %14 = call zeroext i1 (ptr, ...) @SDL_SetError_REAL(ptr noundef @.str, ptr noundef @.str.14)
  store i1 %14, ptr %3, align 1
  br label %26

15:                                               ; preds = %10
  br label %16

16:                                               ; preds = %15
  %17 = load ptr, ptr %4, align 8
  %18 = getelementptr inbounds nuw %struct.SDL_AudioStream, ptr %17, i32 0, i32 0
  %19 = load ptr, ptr %18, align 8
  call void @SDL_LockMutex_REAL(ptr noundef %19)
  %20 = load float, ptr %5, align 4
  %21 = load ptr, ptr %4, align 8
  %22 = getelementptr inbounds nuw %struct.SDL_AudioStream, ptr %21, i32 0, i32 11
  store float %20, ptr %22, align 4
  %23 = load ptr, ptr %4, align 8
  %24 = getelementptr inbounds nuw %struct.SDL_AudioStream, ptr %23, i32 0, i32 0
  %25 = load ptr, ptr %24, align 8
  call void @SDL_UnlockMutex_REAL(ptr noundef %25)
  store i1 true, ptr %3, align 1
  br label %26

26:                                               ; preds = %16, %13, %8
  %27 = load i1, ptr %3, align 1
  ret i1 %27
}