; Function Attrs: nounwind uwtable
define hidden zeroext i1 @SDL_SetAudioStreamGain_REAL(ptr noundef captures(address_is_null) %0, float noundef %1) local_unnamed_addr #2 {
  %.not = icmp eq ptr %0, null
  br i1 %.not, label %3, label %5

3:                                                ; preds = %2
  %4 = tail call zeroext i1 (ptr, ...) @SDL_SetError_REAL(ptr noundef nonnull @.str, ptr noundef nonnull @.str.1) #11
  br label %13

5:                                                ; preds = %2
  %6 = fcmp olt float %1, 0.000000e+00
  br i1 %6, label %7, label %9

7:                                                ; preds = %5
  %8 = tail call zeroext i1 (ptr, ...) @SDL_SetError_REAL(ptr noundef nonnull @.str, ptr noundef nonnull @.str.14) #11
  br label %13

9:                                                ; preds = %5
  %10 = load ptr, ptr %0, align 8
  tail call void @SDL_LockMutex_REAL(ptr noundef %10) #11
  %11 = getelementptr inbounds nuw i8, ptr %0, i64 92
  store float %1, ptr %11, align 4
  %12 = load ptr, ptr %0, align 8
  tail call void @SDL_UnlockMutex_REAL(ptr noundef %12) #11
  br label %13

13:                                               ; preds = %9, %7, %3
  %.0 = phi i1 [ %8, %7 ], [ true, %9 ], [ %4, %3 ]
  ret i1 %.0
}